target datalayout = "e-m:e-p270:32:32-p271:32:32-p272:64:64-i64:64-i128:128-f80:128-n8:16:32:64-S128"
target triple = "x86_64-pc-linux-gnu"

%class.anon = type { i8 }

@common_log_verbosity_thold = external global i32, align 4
@.str.81 = private unnamed_addr constant [3 x i8] c"%s\00", align 1

; Function Attrs: inlinehint mustprogress uwtable
define internal void @"_ZZ11common_initvENK3$_0clE14ggml_log_levelPKcPv"(ptr noundef nonnull align 1 dereferenceable(1) %0, i32 noundef %1, ptr noundef %2, ptr noundef %3) #7 align 2 {
  %5 = alloca ptr, align 8
  %6 = alloca i32, align 4
  %7 = alloca ptr, align 8
  %8 = alloca ptr, align 8
  store ptr %0, ptr %5, align 8, !tbaa !51
  store i32 %1, ptr %6, align 4, !tbaa !519
  store ptr %2, ptr %7, align 8, !tbaa !16
  store ptr %3, ptr %8, align 8, !tbaa !51
  %9 = load i32, ptr @common_log_verbosity_thold, align 4, !tbaa !3
  %10 = icmp sle i32 0, %9
  br i1 %10, label %11, label %15

11:                                               ; preds = %4
  %12 = call noundef ptr @_Z15common_log_mainv()
  %13 = load i32, ptr %6, align 4, !tbaa !519
  %14 = load ptr, ptr %7, align 8, !tbaa !16
  call void (ptr, i32, ptr, ...) @_Z14common_log_addP10common_log14ggml_log_levelPKcz(ptr noundef %12, i32 noundef %13, ptr noundef @.str.81, ptr noundef %14)
  br label %15

15:                                               ; preds = %11, %4
  ret void
}

; Function Attrs: inlinehint mustprogress uwtable
define internal void @"_ZZ11common_initvEN3$_08__invokeE14ggml_log_levelPKcPv"(i32 noundef %0, ptr noundef %1, ptr noundef %2) #7 align 2 {
  %4 = alloca i32, align 4
  %5 = alloca ptr, align 8
  %6 = alloca ptr, align 8
  %7 = alloca %class.anon, align 1
  store i32 %0, ptr %4, align 4, !tbaa !519
  store ptr %1, ptr %5, align 8, !tbaa !16
  store ptr %2, ptr %6, align 8, !tbaa !51
  %8 = load i32, ptr %4, align 4, !tbaa !519
  %9 = load ptr, ptr %5, align 8, !tbaa !16
  %10 = load ptr, ptr %6, align 8, !tbaa !51
  call void @"_ZZ11common_initvENK3$_0clE14ggml_log_levelPKcPv"(ptr noundef nonnull align 1 dereferenceable(1) %7, i32 noundef %8, ptr noundef %9, ptr noundef %10)
  ret void
}