; Function Attrs: inlinehint mustprogress uwtable
define internal void @"_ZZ11common_initvEN3$_08__invokeE14ggml_log_levelPKcPv"(i32 noundef %0, ptr noundef %1, ptr readnone captures(none) %2) #13 align 2 {
  %4 = load i32, ptr @common_log_verbosity_thold, align 4, !tbaa !72
  %5 = icmp sgt i32 %4, -1
  br i1 %5, label %6, label %"_ZZ11common_initvENK3$_0clE14ggml_log_levelPKcPv.exit"

6:                                                ; preds = %3
  %7 = tail call noundef ptr @_Z15common_log_mainv()
  tail call void (ptr, i32, ptr, ...) @_Z14common_log_addP10common_log14ggml_log_levelPKcz(ptr noundef %7, i32 noundef %0, ptr noundef nonnull @.str.81, ptr noundef %1)
  br label %"_ZZ11common_initvENK3$_0clE14ggml_log_levelPKcPv.exit"

"_ZZ11common_initvENK3$_0clE14ggml_log_levelPKcPv.exit": ; preds = %3, %6
  ret void
}